; Function Attrs: null_pointer_is_valid sspstrong uwtable
define internal noundef i32 @dissect_p1_TokenTypeData(i1 zeroext %0, ptr noundef %1, i32 noundef returned %2, ptr noundef readonly captures(none) %3, ptr noundef %4, i32 %5) #0 {
  %7 = getelementptr inbounds nuw i8, ptr %3, i64 72
  %8 = load ptr, ptr %7, align 8
  %.not = icmp eq ptr %8, null
  br i1 %.not, label %15, label %9

9:                                                ; preds = %6
  %10 = getelementptr inbounds nuw i8, ptr %3, i64 16
  %11 = load ptr, ptr %10, align 8
  %12 = getelementptr inbounds nuw i8, ptr %3, i64 48
  %13 = load ptr, ptr %12, align 8
  %14 = tail call i32 @call_ber_oid_callback(ptr noundef nonnull %8, ptr noundef %1, i32 noundef %2, ptr noundef %11, ptr noundef %4, ptr noundef %13)
  br label %15

15:                                               ; preds = %9, %6
  ret i32 %2
}